; Function Attrs: mustprogress uwtable
define dso_local void @_ZN3igl6opengl4glfw5imgui11ImGuiPlugin4initEPNS1_6ViewerE(ptr noundef nonnull align 8 dereferenceable(88) initializes((40, 48)) %0, ptr noundef %1) unnamed_addr #0 align 2 personality ptr @__gxx_personality_v0 {
  %3 = getelementptr inbounds nuw i8, ptr %0, i64 40
  store ptr %1, ptr %3, align 8, !tbaa !4
  %.not = icmp eq ptr %1, null
  br i1 %.not, label %33, label %4

4:                                                ; preds = %2
  %5 = tail call noundef zeroext i1 @_ZN5ImGui30DebugCheckVersionAndDataLayoutEPKcmmmmmm(ptr noundef nonnull @.str, i64 noundef 5464, i64 noundef 1048, i64 noundef 8, i64 noundef 16, i64 noundef 20, i64 noundef 2)
  %6 = getelementptr inbounds nuw i8, ptr %0, i64 56
  %7 = load ptr, ptr %6, align 8, !tbaa !14
  %.not6 = icmp eq ptr %7, null
  br i1 %.not6, label %8, label %20

8:                                                ; preds = %4
  %9 = load atomic i8, ptr @_ZGVZN3igl6opengl4glfw5imgui11ImGuiPlugin4initEPNS1_6ViewerEE16__global_context acquire, align 8
  %10 = icmp eq i8 %9, 0
  br i1 %10, label %11, label %16, !prof !24

11:                                               ; preds = %8
  %12 = tail call i32 @__cxa_guard_acquire(ptr nonnull @_ZGVZN3igl6opengl4glfw5imgui11ImGuiPlugin4initEPNS1_6ViewerEE16__global_context) #9
  %.not7 = icmp eq i32 %12, 0
  br i1 %.not7, label %16, label %13

13:                                               ; preds = %11
  %14 = invoke noundef ptr @_ZN5ImGui13CreateContextEP11ImFontAtlas(ptr noundef null)
          to label %15 unwind label %18

15:                                               ; preds = %13
  store ptr %14, ptr @_ZZN3igl6opengl4glfw5imgui11ImGuiPlugin4initEPNS1_6ViewerEE16__global_context, align 8, !tbaa !25
  tail call void @__cxa_guard_release(ptr nonnull @_ZGVZN3igl6opengl4glfw5imgui11ImGuiPlugin4initEPNS1_6ViewerEE16__global_context) #9
  br label %16

16:                                               ; preds = %15, %11, %8
  %17 = load ptr, ptr @_ZZN3igl6opengl4glfw5imgui11ImGuiPlugin4initEPNS1_6ViewerEE16__global_context, align 8, !tbaa !25
  store ptr %17, ptr %6, align 8, !tbaa !14
  br label %20

18:                                               ; preds = %13
  %19 = landingpad { ptr, i32 }
          cleanup
  tail call void @__cxa_guard_abort(ptr nonnull @_ZGVZN3igl6opengl4glfw5imgui11ImGuiPlugin4initEPNS1_6ViewerEE16__global_context) #9
  resume { ptr, i32 } %19

20:                                               ; preds = %16, %4
  %21 = load ptr, ptr %3, align 8, !tbaa !4
  %22 = getelementptr inbounds nuw i8, ptr %21, i64 48
  %23 = load ptr, ptr %22, align 16, !tbaa !26
  %24 = tail call noundef zeroext i1 @_Z28ImGui_ImplGlfw_InitForOpenGLP10GLFWwindowb(ptr noundef %23, i1 noundef zeroext false)
  %25 = tail call noundef zeroext i1 @_Z22ImGui_ImplOpenGL3_InitPKc(ptr noundef nonnull @.str.3)
  %26 = tail call noundef nonnull align 8 dereferenceable(5464) ptr @_ZN5ImGui5GetIOEv()
  %27 = getelementptr inbounds nuw i8, ptr %26, i64 24
  store ptr null, ptr %27, align 8, !tbaa !61
  tail call void @_ZN5ImGui15StyleColorsDarkEP10ImGuiStyle(ptr noundef null)
  %28 = tail call noundef nonnull align 4 dereferenceable(1048) ptr @_ZN5ImGui8GetStyleEv()
  %29 = getelementptr inbounds nuw i8, ptr %28, i64 68
  store float 5.000000e+00, ptr %29, align 4, !tbaa !69
  %30 = load ptr, ptr %0, align 8, !tbaa !71
  %31 = getelementptr inbounds nuw i8, ptr %30, i64 152
  %32 = load ptr, ptr %31, align 8
  tail call void %32(ptr noundef nonnull align 8 dereferenceable(88) %0, i32 noundef 13)
  br label %33

33:                                               ; preds = %20, %2
  %34 = getelementptr inbounds nuw i8, ptr %0, i64 64
  %35 = load ptr, ptr %34, align 8, !tbaa !73
  %36 = getelementptr inbounds nuw i8, ptr %0, i64 72
  %37 = load ptr, ptr %36, align 8, !tbaa !73
  %.not7.i = icmp eq ptr %35, %37
  br i1 %.not7.i, label %_ZN3igl6opengl4glfw5imgui11ImGuiPlugin12init_widgetsEv.exit, label %.lr.ph.i

.lr.ph.i:                                         ; preds = %33, %.lr.ph.i
  %.sroa.04.08.i = phi ptr [ %43, %.lr.ph.i ], [ %35, %33 ]
  %38 = load ptr, ptr %.sroa.04.08.i, align 8, !tbaa !74
  %39 = load ptr, ptr %3, align 8, !tbaa !4
  %40 = load ptr, ptr %38, align 8, !tbaa !71
  %41 = getelementptr inbounds nuw i8, ptr %40, i64 16
  %42 = load ptr, ptr %41, align 8
  tail call void %42(ptr noundef nonnull align 8 dereferenceable(56) %38, ptr noundef %39, ptr noundef nonnull align 8 dereferenceable(88) %0)
  %43 = getelementptr inbounds nuw i8, ptr %.sroa.04.08.i, i64 8
  %.not.i = icmp eq ptr %43, %37
  br i1 %.not.i, label %_ZN3igl6opengl4glfw5imgui11ImGuiPlugin12init_widgetsEv.exit, label %.lr.ph.i

_ZN3igl6opengl4glfw5imgui11ImGuiPlugin12init_widgetsEv.exit: ; preds = %.lr.ph.i, %33
  ret void
}